target datalayout = "e-m:e-p270:32:32-p271:32:32-p272:64:64-i64:64-i128:128-f80:128-n8:16:32:64-S128"
target triple = "x86_64-pc-linux-gnu"

%class.CryptData = type { [4 x %"struct.CryptData::KDF3CacheItem"], i32, [4 x i8], [4 x %"struct.CryptData::KDF5CacheItem"], i32, i32, %class.Rijndael, [256 x i32], [256 x i8], [4 x i32], [3 x i8], [4 x i16], [4 x i8] }
%"struct.CryptData::KDF3CacheItem" = type { %class.SecPassword, [8 x i8], [16 x i8], [16 x i8], i8, [7 x i8] }
%class.SecPassword = type <{ %"class.std::vector", i8, [7 x i8] }>
%"class.std::vector" = type { %"struct.std::_Vector_base" }
%"struct.std::_Vector_base" = type { %"struct.std::_Vector_base<wchar_t, std::allocator<wchar_t>>::_Vector_impl" }
%"struct.std::_Vector_base<wchar_t, std::allocator<wchar_t>>::_Vector_impl" = type { %"struct.std::_Vector_base<wchar_t, std::allocator<wchar_t>>::_Vector_impl_data" }
%"struct.std::_Vector_base<wchar_t, std::allocator<wchar_t>>::_Vector_impl_data" = type { ptr, ptr, ptr }
%"struct.CryptData::KDF5CacheItem" = type { %class.SecPassword, [16 x i8], [32 x i8], i32, [32 x i8], [32 x i8], [4 x i8] }
%class.Rijndael = type { i8, i32, [16 x i8], [15 x [4 x [4 x i8]]] }

; Function Attrs: mustprogress uwtable
define linkonce_odr noundef nonnull align 8 dereferenceable(25) ptr @_ZN11SecPasswordaSERKS_(ptr noundef nonnull align 8 dereferenceable(25) %0, ptr noundef nonnull align 8 dereferenceable(25) %1) #1 comdat align 2 {
  %3 = alloca ptr, align 8
  %4 = alloca ptr, align 8
  store ptr %0, ptr %3, align 8
  store ptr %1, ptr %4, align 8
  %5 = load ptr, ptr %3, align 8
  %6 = getelementptr inbounds %class.SecPassword, ptr %5, i32 0, i32 0
  %7 = load ptr, ptr %4, align 8
  %8 = getelementptr inbounds %class.SecPassword, ptr %7, i32 0, i32 0
  %9 = call noundef nonnull align 8 dereferenceable(24) ptr @_ZNSt6vectorIwSaIwEEaSERKS1_(ptr noundef nonnull align 8 dereferenceable(24) %6, ptr noundef nonnull align 8 dereferenceable(24) %8)
  %10 = load ptr, ptr %4, align 8
  %11 = getelementptr inbounds %class.SecPassword, ptr %10, i32 0, i32 1
  %12 = load i8, ptr %11, align 8
  %13 = trunc i8 %12 to i1
  %14 = getelementptr inbounds %class.SecPassword, ptr %5, i32 0, i32 1
  %15 = zext i1 %13 to i8
  store i8 %15, ptr %14, align 8
  ret ptr %5
}

; Function Attrs: mustprogress uwtable
define void @_ZN9CryptData8SetKey50EbP11SecPasswordPKwPKhS5_jPhS6_(ptr noundef nonnull align 8 dereferenceable(2516) %0, i1 noundef zeroext %1, ptr noundef %2, ptr noundef %3, ptr noundef %4, ptr noundef %5, i32 noundef %6, ptr noundef %7, ptr noundef %8) #1 align 2 {
  %10 = alloca ptr, align 8
  %11 = alloca i8, align 1
  %12 = alloca ptr, align 8
  %13 = alloca ptr, align 8
  %14 = alloca ptr, align 8
  %15 = alloca ptr, align 8
  %16 = alloca i32, align 4
  %17 = alloca ptr, align 8
  %18 = alloca ptr, align 8
  %19 = alloca [32 x i8], align 16
  %20 = alloca [32 x i8], align 16
  %21 = alloca [32 x i8], align 16
  %22 = alloca i8, align 1
  %23 = alloca i32, align 4
  %24 = alloca ptr, align 8
  %25 = alloca [2048 x i8], align 16
  %26 = alloca ptr, align 8
  %27 = alloca i32, align 4
  store ptr %0, ptr %10, align 8
  %28 = zext i1 %1 to i8
  store i8 %28, ptr %11, align 1
  store ptr %2, ptr %12, align 8
  store ptr %3, ptr %13, align 8
  store ptr %4, ptr %14, align 8
  store ptr %5, ptr %15, align 8
  store i32 %6, ptr %16, align 4
  store ptr %7, ptr %17, align 8
  store ptr %8, ptr %18, align 8
  %29 = load ptr, ptr %10, align 8
  %30 = load i32, ptr %16, align 4
  %31 = icmp ugt i32 %30, 24
  br i1 %31, label %32, label %43

32:                                               ; preds = %9
  %33 = load ptr, ptr %17, align 8
  %34 = icmp ne ptr %33, null
  br i1 %34, label %35, label %37

35:                                               ; preds = %32
  %36 = load ptr, ptr %17, align 8
  call void @llvm.memset.p0.i64(ptr align 1 %36, i8 0, i64 32, i1 false)
  br label %37

37:                                               ; preds = %35, %32
  %38 = load ptr, ptr %18, align 8
  %39 = icmp ne ptr %38, null
  br i1 %39, label %40, label %42

40:                                               ; preds = %37
  %41 = load ptr, ptr %18, align 8
  call void @llvm.memset.p0.i64(ptr align 1 %41, i8 0, i64 8, i1 false)
  br label %42

42:                                               ; preds = %40, %37
  br label %184

43:                                               ; preds = %9
  store i8 0, ptr %22, align 1
  store i32 0, ptr %23, align 4
  br label %44

44:                                               ; preds = %86, %43
  %45 = load i32, ptr %23, align 4
  %46 = zext i32 %45 to i64
  %47 = icmp ult i64 %46, 4
  br i1 %47, label %48, label %89

48:                                               ; preds = %44
  %49 = getelementptr inbounds %class.CryptData, ptr %29, i32 0, i32 3
  %50 = getelementptr inbounds [4 x %"struct.CryptData::KDF5CacheItem"], ptr %49, i64 0, i64 0
  %51 = load i32, ptr %23, align 4
  %52 = zext i32 %51 to i64
  %53 = getelementptr inbounds %"struct.CryptData::KDF5CacheItem", ptr %50, i64 %52
  store ptr %53, ptr %24, align 8
  %54 = load ptr, ptr %24, align 8
  %55 = getelementptr inbounds %"struct.CryptData::KDF5CacheItem", ptr %54, i32 0, i32 0
  %56 = load ptr, ptr %12, align 8
  %57 = call noundef zeroext i1 @_ZN11SecPasswordeqERS_(ptr noundef nonnull align 8 dereferenceable(25) %55, ptr noundef nonnull align 8 dereferenceable(25) %56)
  br i1 %57, label %58, label %85

58:                                               ; preds = %48
  %59 = load ptr, ptr %24, align 8
  %60 = getelementptr inbounds %"struct.CryptData::KDF5CacheItem", ptr %59, i32 0, i32 3
  %61 = load i32, ptr %60, align 8
  %62 = load i32, ptr %16, align 4
  %63 = icmp eq i32 %61, %62
  br i1 %63, label %64, label %85

64:                                               ; preds = %58
  %65 = load ptr, ptr %24, align 8
  %66 = getelementptr inbounds %"struct.CryptData::KDF5CacheItem", ptr %65, i32 0, i32 1
  %67 = getelementptr inbounds [16 x i8], ptr %66, i64 0, i64 0
  %68 = load ptr, ptr %14, align 8
  %69 = call i32 @memcmp(ptr noundef %67, ptr noundef %68, i64 noundef 16) #12
  %70 = icmp eq i32 %69, 0
  br i1 %70, label %71, label %85

71:                                               ; preds = %64
  %72 = getelementptr inbounds [32 x i8], ptr %19, i64 0, i64 0
  %73 = load ptr, ptr %24, align 8
  %74 = getelementptr inbounds %"struct.CryptData::KDF5CacheItem", ptr %73, i32 0, i32 2
  %75 = getelementptr inbounds [32 x i8], ptr %74, i64 0, i64 0
  call void @llvm.memcpy.p0.p0.i64(ptr align 16 %72, ptr align 8 %75, i64 32, i1 false)
  %76 = getelementptr inbounds [32 x i8], ptr %19, i64 0, i64 0
  call void @_Z11SecHideDataPvmbb(ptr noundef %76, i64 noundef 32, i1 noundef zeroext false, i1 noundef zeroext false)
  %77 = getelementptr inbounds [32 x i8], ptr %20, i64 0, i64 0
  %78 = load ptr, ptr %24, align 8
  %79 = getelementptr inbounds %"struct.CryptData::KDF5CacheItem", ptr %78, i32 0, i32 4
  %80 = getelementptr inbounds [32 x i8], ptr %79, i64 0, i64 0
  call void @llvm.memcpy.p0.p0.i64(ptr align 16 %77, ptr align 4 %80, i64 32, i1 false)
  %81 = getelementptr inbounds [32 x i8], ptr %21, i64 0, i64 0
  %82 = load ptr, ptr %24, align 8
  %83 = getelementptr inbounds %"struct.CryptData::KDF5CacheItem", ptr %82, i32 0, i32 5
  %84 = getelementptr inbounds [32 x i8], ptr %83, i64 0, i64 0
  call void @llvm.memcpy.p0.p0.i64(ptr align 16 %81, ptr align 4 %84, i64 32, i1 false)
  store i8 1, ptr %22, align 1
  br label %89

85:                                               ; preds = %64, %58, %48
  br label %86

86:                                               ; preds = %85
  %87 = load i32, ptr %23, align 4
  %88 = add i32 %87, 1
  store i32 %88, ptr %23, align 4
  br label %44, !llvm.loop !28

89:                                               ; preds = %71, %44
  %90 = load i8, ptr %22, align 1
  %91 = trunc i8 %90 to i1
  br i1 %91, label %139, label %92

92:                                               ; preds = %89
  %93 = load ptr, ptr %13, align 8
  %94 = getelementptr inbounds [2048 x i8], ptr %25, i64 0, i64 0
  call void @_Z9WideToUtfPKwPcm(ptr noundef %93, ptr noundef %94, i64 noundef 2048)
  %95 = getelementptr inbounds [2048 x i8], ptr %25, i64 0, i64 0
  %96 = getelementptr inbounds [2048 x i8], ptr %25, i64 0, i64 0
  %97 = call i64 @strlen(ptr noundef %96) #12
  %98 = load ptr, ptr %14, align 8
  %99 = getelementptr inbounds [32 x i8], ptr %19, i64 0, i64 0
  %100 = getelementptr inbounds [32 x i8], ptr %21, i64 0, i64 0
  %101 = getelementptr inbounds [32 x i8], ptr %20, i64 0, i64 0
  %102 = load i32, ptr %16, align 4
  %103 = shl i32 1, %102
  call void @_Z6pbkdf2PKhmS0_mPhS1_S1_j(ptr noundef %95, i64 noundef %97, ptr noundef %98, i64 noundef 16, ptr noundef %99, ptr noundef %100, ptr noundef %101, i32 noundef %103)
  %104 = getelementptr inbounds [2048 x i8], ptr %25, i64 0, i64 0
  call void @_Z9cleandataPvm(ptr noundef %104, i64 noundef 2048)
  %105 = getelementptr inbounds %class.CryptData, ptr %29, i32 0, i32 3
  %106 = getelementptr inbounds [4 x %"struct.CryptData::KDF5CacheItem"], ptr %105, i64 0, i64 0
  %107 = getelementptr inbounds %class.CryptData, ptr %29, i32 0, i32 4
  %108 = load i32, ptr %107, align 8
  %109 = add i32 %108, 1
  store i32 %109, ptr %107, align 8
  %110 = zext i32 %108 to i64
  %111 = urem i64 %110, 4
  %112 = getelementptr inbounds %"struct.CryptData::KDF5CacheItem", ptr %106, i64 %111
  store ptr %112, ptr %26, align 8
  %113 = load i32, ptr %16, align 4
  %114 = load ptr, ptr %26, align 8
  %115 = getelementptr inbounds %"struct.CryptData::KDF5CacheItem", ptr %114, i32 0, i32 3
  store i32 %113, ptr %115, align 8
  %116 = load ptr, ptr %12, align 8
  %117 = load ptr, ptr %26, align 8
  %118 = getelementptr inbounds %"struct.CryptData::KDF5CacheItem", ptr %117, i32 0, i32 0
  %119 = call noundef nonnull align 8 dereferenceable(25) ptr @_ZN11SecPasswordaSERKS_(ptr noundef nonnull align 8 dereferenceable(25) %118, ptr noundef nonnull align 8 dereferenceable(25) %116)
  %120 = load ptr, ptr %26, align 8
  %121 = getelementptr inbounds %"struct.CryptData::KDF5CacheItem", ptr %120, i32 0, i32 1
  %122 = getelementptr inbounds [16 x i8], ptr %121, i64 0, i64 0
  %123 = load ptr, ptr %14, align 8
  call void @llvm.memcpy.p0.p0.i64(ptr align 8 %122, ptr align 1 %123, i64 16, i1 false)
  %124 = load ptr, ptr %26, align 8
  %125 = getelementptr inbounds %"struct.CryptData::KDF5CacheItem", ptr %124, i32 0, i32 2
  %126 = getelementptr inbounds [32 x i8], ptr %125, i64 0, i64 0
  %127 = getelementptr inbounds [32 x i8], ptr %19, i64 0, i64 0
  call void @llvm.memcpy.p0.p0.i64(ptr align 8 %126, ptr align 16 %127, i64 32, i1 false)
  %128 = load ptr, ptr %26, align 8
  %129 = getelementptr inbounds %"struct.CryptData::KDF5CacheItem", ptr %128, i32 0, i32 4
  %130 = getelementptr inbounds [32 x i8], ptr %129, i64 0, i64 0
  %131 = getelementptr inbounds [32 x i8], ptr %20, i64 0, i64 0
  call void @llvm.memcpy.p0.p0.i64(ptr align 4 %130, ptr align 16 %131, i64 32, i1 false)
  %132 = load ptr, ptr %26, align 8
  %133 = getelementptr inbounds %"struct.CryptData::KDF5CacheItem", ptr %132, i32 0, i32 5
  %134 = getelementptr inbounds [32 x i8], ptr %133, i64 0, i64 0
  %135 = getelementptr inbounds [32 x i8], ptr %21, i64 0, i64 0
  call void @llvm.memcpy.p0.p0.i64(ptr align 4 %134, ptr align 16 %135, i64 32, i1 false)
  %136 = load ptr, ptr %26, align 8
  %137 = getelementptr inbounds %"struct.CryptData::KDF5CacheItem", ptr %136, i32 0, i32 2
  %138 = getelementptr inbounds [32 x i8], ptr %137, i64 0, i64 0
  call void @_Z11SecHideDataPvmbb(ptr noundef %138, i64 noundef 32, i1 noundef zeroext true, i1 noundef zeroext false)
  br label %139

139:                                              ; preds = %92, %89
  %140 = load ptr, ptr %17, align 8
  %141 = icmp ne ptr %140, null
  br i1 %141, label %142, label %145

142:                                              ; preds = %139
  %143 = load ptr, ptr %17, align 8
  %144 = getelementptr inbounds [32 x i8], ptr %21, i64 0, i64 0
  call void @llvm.memcpy.p0.p0.i64(ptr align 1 %143, ptr align 16 %144, i64 32, i1 false)
  br label %145

145:                                              ; preds = %142, %139
  %146 = load ptr, ptr %18, align 8
  %147 = icmp ne ptr %146, null
  br i1 %147, label %148, label %173

148:                                              ; preds = %145
  %149 = load ptr, ptr %18, align 8
  call void @llvm.memset.p0.i64(ptr align 1 %149, i8 0, i64 8, i1 false)
  store i32 0, ptr %27, align 4
  br label %150

150:                                              ; preds = %168, %148
  %151 = load i32, ptr %27, align 4
  %152 = icmp ult i32 %151, 32
  br i1 %152, label %153, label %171

153:                                              ; preds = %150
  %154 = load i32, ptr %27, align 4
  %155 = zext i32 %154 to i64
  %156 = getelementptr inbounds [32 x i8], ptr %20, i64 0, i64 %155
  %157 = load i8, ptr %156, align 1
  %158 = zext i8 %157 to i32
  %159 = load ptr, ptr %18, align 8
  %160 = load i32, ptr %27, align 4
  %161 = urem i32 %160, 8
  %162 = zext i32 %161 to i64
  %163 = getelementptr inbounds i8, ptr %159, i64 %162
  %164 = load i8, ptr %163, align 1
  %165 = zext i8 %164 to i32
  %166 = xor i32 %165, %158
  %167 = trunc i32 %166 to i8
  store i8 %167, ptr %163, align 1
  br label %168

168:                                              ; preds = %153
  %169 = load i32, ptr %27, align 4
  %170 = add i32 %169, 1
  store i32 %170, ptr %27, align 4
  br label %150, !llvm.loop !29

171:                                              ; preds = %150
  %172 = getelementptr inbounds [32 x i8], ptr %20, i64 0, i64 0
  call void @_Z9cleandataPvm(ptr noundef %172, i64 noundef 32)
  br label %173

173:                                              ; preds = %171, %145
  %174 = load ptr, ptr %15, align 8
  %175 = icmp ne ptr %174, null
  br i1 %175, label %176, label %182

176:                                              ; preds = %173
  %177 = getelementptr inbounds %class.CryptData, ptr %29, i32 0, i32 6
  %178 = load i8, ptr %11, align 1
  %179 = trunc i8 %178 to i1
  %180 = getelementptr inbounds [32 x i8], ptr %19, i64 0, i64 0
  %181 = load ptr, ptr %15, align 8
  call void @_ZN8Rijndael4InitEbPKhjS1_(ptr noundef nonnull align 4 dereferenceable(264) %177, i1 noundef zeroext %179, ptr noundef %180, i32 noundef 256, ptr noundef %181)
  br label %182

182:                                              ; preds = %176, %173
  %183 = getelementptr inbounds [32 x i8], ptr %19, i64 0, i64 0
  call void @_Z9cleandataPvm(ptr noundef %183, i64 noundef 32)
  br label %184

184:                                              ; preds = %182, %42
  ret void
}