; Function Attrs: mustprogress uwtable
define void @_ZN9CryptData8SetKey50EbP11SecPasswordPKwPKhS5_jPhS6_(ptr noundef nonnull align 8 dereferenceable(2516) %0, i1 noundef zeroext %1, ptr noundef %2, ptr noundef %3, ptr noundef readonly captures(none) %4, ptr noundef %5, i32 noundef %6, ptr noundef writeonly %7, ptr noundef %8) local_unnamed_addr #1 align 2 {
  %10 = alloca [32 x i8], align 16
  %11 = alloca [32 x i8], align 16
  %12 = alloca [32 x i8], align 16
  %13 = alloca [2048 x i8], align 16
  %14 = icmp ugt i32 %6, 24
  br i1 %14, label %16, label %.preheader

.preheader:                                       ; preds = %9
  %15 = getelementptr inbounds nuw i8, ptr %0, i64 328
  br label %20

16:                                               ; preds = %9
  %.not53 = icmp eq ptr %7, null
  br i1 %.not53, label %18, label %17

17:                                               ; preds = %16
  tail call void @llvm.memset.p0.i64(ptr noundef nonnull align 1 dereferenceable(32) %7, i8 0, i64 32, i1 false)
  br label %18

18:                                               ; preds = %17, %16
  %.not54 = icmp eq ptr %8, null
  br i1 %.not54, label %69, label %19

19:                                               ; preds = %18
  store i64 0, ptr %8, align 1
  br label %69

20:                                               ; preds = %.preheader, %34
  %indvars.iv = phi i64 [ 0, %.preheader ], [ %indvars.iv.next, %34 ]
  %21 = getelementptr inbounds nuw %"struct.CryptData::KDF5CacheItem", ptr %15, i64 %indvars.iv
  %22 = tail call noundef zeroext i1 @_ZN11SecPasswordeqERS_(ptr noundef nonnull align 8 dereferenceable(25) %21, ptr noundef nonnull align 8 dereferenceable(25) %2)
  br i1 %22, label %23, label %34

23:                                               ; preds = %20
  %24 = getelementptr inbounds nuw i8, ptr %21, i64 80
  %25 = load i32, ptr %24, align 8
  %26 = icmp eq i32 %25, %6
  br i1 %26, label %27, label %34

27:                                               ; preds = %23
  %28 = getelementptr inbounds nuw i8, ptr %21, i64 32
  %bcmp = tail call i32 @bcmp(ptr noundef nonnull dereferenceable(16) %28, ptr noundef nonnull dereferenceable(16) %4, i64 16)
  %29 = icmp eq i32 %bcmp, 0
  br i1 %29, label %30, label %34

30:                                               ; preds = %27
  %31 = getelementptr inbounds nuw i8, ptr %21, i64 48
  call void @llvm.memcpy.p0.p0.i64(ptr noundef nonnull align 16 dereferenceable(32) %10, ptr noundef nonnull align 8 dereferenceable(32) %31, i64 32, i1 false)
  call void @_Z11SecHideDataPvmbb(ptr noundef nonnull %10, i64 noundef 32, i1 noundef zeroext false, i1 noundef zeroext false)
  %32 = getelementptr inbounds nuw i8, ptr %21, i64 84
  call void @llvm.memcpy.p0.p0.i64(ptr noundef nonnull align 16 dereferenceable(32) %11, ptr noundef nonnull align 4 dereferenceable(32) %32, i64 32, i1 false)
  %33 = getelementptr inbounds nuw i8, ptr %21, i64 116
  call void @llvm.memcpy.p0.p0.i64(ptr noundef nonnull align 16 dereferenceable(32) %12, ptr noundef nonnull align 4 dereferenceable(32) %33, i64 32, i1 false)
  br label %53

34:                                               ; preds = %20, %23, %27
  %indvars.iv.next = add nuw nsw i64 %indvars.iv, 1
  %exitcond.not = icmp eq i64 %indvars.iv.next, 4
  br i1 %exitcond.not, label %.critedge, label %20, !llvm.loop !25

.critedge:                                        ; preds = %34
  call void @_Z9WideToUtfPKwPcm(ptr noundef %3, ptr noundef nonnull %13, i64 noundef 2048)
  %35 = call i64 @strlen(ptr noundef nonnull dereferenceable(1) %13) #19
  %36 = shl nuw nsw i32 1, %6
  call void @_Z6pbkdf2PKhmS0_mPhS1_S1_j(ptr noundef nonnull %13, i64 noundef %35, ptr noundef %4, i64 noundef 16, ptr noundef nonnull %10, ptr noundef nonnull %12, ptr noundef nonnull %11, i32 noundef %36)
  call void @_Z9cleandataPvm(ptr noundef nonnull %13, i64 noundef 2048)
  %37 = getelementptr inbounds nuw i8, ptr %0, i64 936
  %38 = load i32, ptr %37, align 8
  %39 = add i32 %38, 1
  store i32 %39, ptr %37, align 8
  %40 = and i32 %38, 3
  %41 = zext nneg i32 %40 to i64
  %42 = getelementptr inbounds nuw %"struct.CryptData::KDF5CacheItem", ptr %15, i64 %41
  %43 = getelementptr inbounds nuw i8, ptr %42, i64 80
  store i32 %6, ptr %43, align 8
  %44 = call noundef nonnull align 8 dereferenceable(24) ptr @_ZNSt6vectorIwSaIwEEaSERKS1_(ptr noundef nonnull align 8 dereferenceable(25) %42, ptr noundef nonnull align 8 dereferenceable(25) %2)
  %45 = getelementptr inbounds nuw i8, ptr %2, i64 24
  %46 = load i8, ptr %45, align 8
  %47 = getelementptr inbounds nuw i8, ptr %42, i64 24
  %48 = and i8 %46, 1
  store i8 %48, ptr %47, align 8
  %49 = getelementptr inbounds nuw i8, ptr %42, i64 32
  call void @llvm.memcpy.p0.p0.i64(ptr noundef nonnull align 8 dereferenceable(16) %49, ptr noundef nonnull align 1 dereferenceable(16) %4, i64 16, i1 false)
  %50 = getelementptr inbounds nuw i8, ptr %42, i64 48
  call void @llvm.memcpy.p0.p0.i64(ptr noundef nonnull align 8 dereferenceable(32) %50, ptr noundef nonnull align 16 dereferenceable(32) %10, i64 32, i1 false)
  %51 = getelementptr inbounds nuw i8, ptr %42, i64 84
  call void @llvm.memcpy.p0.p0.i64(ptr noundef nonnull align 4 dereferenceable(32) %51, ptr noundef nonnull align 16 dereferenceable(32) %11, i64 32, i1 false)
  %52 = getelementptr inbounds nuw i8, ptr %42, i64 116
  call void @llvm.memcpy.p0.p0.i64(ptr noundef nonnull align 4 dereferenceable(32) %52, ptr noundef nonnull align 16 dereferenceable(32) %12, i64 32, i1 false)
  call void @_Z11SecHideDataPvmbb(ptr noundef nonnull %50, i64 noundef 32, i1 noundef zeroext true, i1 noundef zeroext false)
  br label %53

53:                                               ; preds = %30, %.critedge
  %.not = icmp eq ptr %7, null
  br i1 %.not, label %55, label %54

54:                                               ; preds = %53
  call void @llvm.memcpy.p0.p0.i64(ptr noundef nonnull align 1 dereferenceable(32) %7, ptr noundef nonnull align 16 dereferenceable(32) %12, i64 32, i1 false)
  br label %55

55:                                               ; preds = %54, %53
  %.not51 = icmp eq ptr %8, null
  br i1 %.not51, label %65, label %56

56:                                               ; preds = %55
  store i64 0, ptr %8, align 1
  br label %57

57:                                               ; preds = %56, %57
  %indvars.iv59 = phi i64 [ 0, %56 ], [ %indvars.iv.next60, %57 ]
  %58 = getelementptr inbounds nuw [32 x i8], ptr %11, i64 0, i64 %indvars.iv59
  %59 = load i8, ptr %58, align 1
  %60 = and i64 %indvars.iv59, 7
  %61 = getelementptr inbounds nuw i8, ptr %8, i64 %60
  %62 = load i8, ptr %61, align 1
  %63 = xor i8 %62, %59
  store i8 %63, ptr %61, align 1
  %indvars.iv.next60 = add nuw nsw i64 %indvars.iv59, 1
  %exitcond62.not = icmp eq i64 %indvars.iv.next60, 32
  br i1 %exitcond62.not, label %64, label %57, !llvm.loop !26

64:                                               ; preds = %57
  call void @_Z9cleandataPvm(ptr noundef nonnull %11, i64 noundef 32)
  br label %65

65:                                               ; preds = %64, %55
  %.not52 = icmp eq ptr %5, null
  br i1 %.not52, label %68, label %66

66:                                               ; preds = %65
  %67 = getelementptr inbounds nuw i8, ptr %0, i64 944
  call void @_ZN8Rijndael4InitEbPKhjS1_(ptr noundef nonnull align 4 dereferenceable(264) %67, i1 noundef zeroext %1, ptr noundef nonnull %10, i32 noundef 256, ptr noundef nonnull %5)
  br label %68

68:                                               ; preds = %66, %65
  call void @_Z9cleandataPvm(ptr noundef nonnull %10, i64 noundef 32)
  br label %69

69:                                               ; preds = %18, %19, %68
  ret void
}